; Function Attrs: mustprogress uwtable
define hidden void @_ZN6Assimp11XFileParser17CheckForSeparatorEv(ptr noundef nonnull align 8 dereferenceable(56) %this) local_unnamed_addr #0 align 2 personality ptr @__gxx_personality_v0 {
entry:
  %token = alloca %"class.std::__cxx11::basic_string", align 8
  %mIsBinaryFormat = getelementptr inbounds i8, ptr %this, i64 8
  %0 = load i8, ptr %mIsBinaryFormat, align 8
  %1 = and i8 %0, 1
  %tobool.not = icmp eq i8 %1, 0
  br i1 %tobool.not, label %if.end, label %return

if.end:                                           ; preds = %entry
  call void @_ZN6Assimp11XFileParser12GetNextTokenB5cxx11Ev(ptr nonnull sret(%"class.std::__cxx11::basic_string") align 8 %token, ptr noundef nonnull align 8 dereferenceable(56) %this)
  %call.i.i = call noundef i32 @_ZNKSt7__cxx1112basic_stringIcSt11char_traitsIcESaIcEE7compareEPKc(ptr noundef nonnull align 8 dereferenceable(32) %token, ptr noundef nonnull @.str.73) #21
  %cmp.i.i.not = icmp eq i32 %call.i.i, 0
  br i1 %cmp.i.i.not, label %if.end6, label %land.lhs.true

land.lhs.true:                                    ; preds = %if.end
  %call.i.i1 = call noundef i32 @_ZNKSt7__cxx1112basic_stringIcSt11char_traitsIcESaIcEE7compareEPKc(ptr noundef nonnull align 8 dereferenceable(32) %token, ptr noundef nonnull @.str.46) #21
  %cmp.i.i2.not = icmp eq i32 %call.i.i1, 0
  br i1 %cmp.i.i2.not, label %if.end6, label %if.then4

if.then4:                                         ; preds = %land.lhs.true
  invoke void @_ZN6Assimp11XFileParser14ThrowExceptionIJRA43_KcEEEvDpOT_(ptr noundef nonnull align 8 dereferenceable(56) %this, ptr noundef nonnull align 1 dereferenceable(43) @.str.74) #23
          to label %invoke.cont5 unwind label %lpad

invoke.cont5:                                     ; preds = %if.then4
  unreachable

lpad:                                             ; preds = %if.then4
  %2 = landingpad { ptr, i32 }
          cleanup
  call void @_ZNSt7__cxx1112basic_stringIcSt11char_traitsIcESaIcEED1Ev(ptr noundef nonnull align 8 dereferenceable(32) %token) #21
  resume { ptr, i32 } %2

if.end6:                                          ; preds = %land.lhs.true, %if.end
  call void @_ZNSt7__cxx1112basic_stringIcSt11char_traitsIcESaIcEED1Ev(ptr noundef nonnull align 8 dereferenceable(32) %token) #21
  br label %return

return:                                           ; preds = %entry, %if.end6
  ret void
}